; Function Attrs: mustprogress nofree norecurse nosync nounwind willreturn memory(read, argmem: readwrite, inaccessiblemem: none) uwtable
define hidden void @_ZN2cv11xfeatures2d9LUCIDImplC2Eii(ptr noundef nonnull writeonly align 8 captures(none) dereferenceable(16) initializes((0, 16)) %0, ptr noundef readonly captures(none) %1, i32 noundef %2, i32 noundef %3) unnamed_addr #2 align 2 {
  %5 = getelementptr inbounds nuw i8, ptr %1, i64 8
  %6 = getelementptr inbounds nuw i8, ptr %1, i64 16
  %7 = load ptr, ptr %6, align 8
  store ptr %7, ptr %0, align 8, !tbaa !14
  %8 = getelementptr inbounds nuw i8, ptr %1, i64 24
  %9 = load ptr, ptr %8, align 8
  %10 = getelementptr i8, ptr %7, i64 -80
  %11 = load i64, ptr %10, align 8
  %12 = getelementptr inbounds i8, ptr %0, i64 %11
  store ptr %9, ptr %12, align 8, !tbaa !14
  %13 = load ptr, ptr %5, align 8
  store ptr %13, ptr %0, align 8, !tbaa !14
  %14 = getelementptr inbounds nuw i8, ptr %1, i64 32
  %15 = load ptr, ptr %14, align 8
  %16 = getelementptr i8, ptr %13, i64 -80
  %17 = load i64, ptr %16, align 8
  %18 = getelementptr inbounds i8, ptr %0, i64 %17
  store ptr %15, ptr %18, align 8, !tbaa !14
  %19 = load ptr, ptr %1, align 8
  store ptr %19, ptr %0, align 8, !tbaa !14
  %20 = getelementptr inbounds nuw i8, ptr %1, i64 40
  %21 = load ptr, ptr %20, align 8
  %22 = getelementptr i8, ptr %19, i64 -80
  %23 = load i64, ptr %22, align 8
  %24 = getelementptr inbounds i8, ptr %0, i64 %23
  store ptr %21, ptr %24, align 8, !tbaa !14
  %25 = getelementptr inbounds nuw i8, ptr %0, i64 8
  store i32 %2, ptr %25, align 8, !tbaa !16
  %26 = shl nsw i32 %3, 1
  %27 = or disjoint i32 %26, 1
  %28 = getelementptr inbounds nuw i8, ptr %0, i64 12
  store i32 %27, ptr %28, align 4, !tbaa !20
  ret void
}